; Function Attrs: nounwind uwtable
define range(i32 0, 2) i32 @lv_draw_buf_init(ptr noundef %0, i32 noundef %1, i32 noundef %2, i32 noundef %3, i32 noundef %4, ptr noundef %5, i32 noundef %6) local_unnamed_addr #0 {
  %.not = icmp eq ptr %0, null
  br i1 %.not, label %.preheader, label %8

.preheader:                                       ; preds = %7, %.preheader
  br label %.preheader

8:                                                ; preds = %7
  tail call void @lv_memset(ptr noundef nonnull %0, i8 noundef zeroext 0, i64 noundef 40) #9
  %9 = icmp eq i32 %4, 0
  br i1 %9, label %10, label %lv_draw_buf_width_to_stride.exit

10:                                               ; preds = %8
  %11 = load ptr, ptr getelementptr inbounds nuw (i8, ptr @lv_global, i64 392), align 8, !tbaa !10
  %.not.i.i = icmp eq ptr %11, null
  br i1 %.not.i.i, label %lv_draw_buf_width_to_stride.exit, label %12

12:                                               ; preds = %10
  %13 = tail call i32 %11(i32 noundef %1, i32 noundef %3) #9
  br label %lv_draw_buf_width_to_stride.exit

lv_draw_buf_width_to_stride.exit:                 ; preds = %12, %10, %8
  %.030 = phi i32 [ %4, %8 ], [ %13, %12 ], [ 0, %10 ]
  %14 = mul i32 %.030, %2
  %15 = icmp ugt i32 %14, %6
  br i1 %15, label %lv_draw_buf_align.exit, label %16

16:                                               ; preds = %lv_draw_buf_width_to_stride.exit
  %17 = and i32 %1, 65535
  %18 = zext nneg i32 %17 to i64
  %19 = shl nuw nsw i64 %18, 32
  %20 = and i32 %2, 65535
  %21 = zext nneg i32 %20 to i64
  %22 = shl nuw i64 %21, 48
  %23 = or disjoint i64 %19, %22
  %24 = shl i32 %3, 8
  %25 = getelementptr inbounds nuw i8, ptr %0, i64 8
  %26 = load i32, ptr %25, align 4
  %27 = and i32 %.030, 65535
  %28 = and i32 %26, -65536
  %29 = or disjoint i32 %28, %27
  store i32 %29, ptr %25, align 4
  %30 = and i32 %24, 65280
  %.masked = zext nneg i32 %30 to i64
  %31 = or disjoint i64 %23, %.masked
  %32 = or disjoint i64 %31, 25
  store i64 %32, ptr %0, align 4
  %33 = getelementptr inbounds nuw i8, ptr %0, i64 16
  store ptr %5, ptr %33, align 8, !tbaa !19
  %34 = getelementptr inbounds nuw i8, ptr %0, i64 24
  store ptr %5, ptr %34, align 8, !tbaa !28
  %35 = getelementptr inbounds nuw i8, ptr %0, i64 32
  store ptr getelementptr inbounds nuw (i8, ptr @lv_global, i64 352), ptr %35, align 8, !tbaa !13
  %36 = getelementptr inbounds nuw i8, ptr %0, i64 12
  store i32 %6, ptr %36, align 4, !tbaa !29
  %37 = load ptr, ptr getelementptr inbounds nuw (i8, ptr @lv_global, i64 368), align 8, !tbaa !9
  %.not.i.i34 = icmp eq ptr %37, null
  br i1 %.not.i.i34, label %lv_draw_buf_align.exit, label %38

38:                                               ; preds = %16
  %39 = tail call ptr %37(ptr noundef %5, i32 noundef %3) #9
  br label %lv_draw_buf_align.exit

lv_draw_buf_align.exit:                           ; preds = %38, %16, %lv_draw_buf_width_to_stride.exit
  %.0 = phi i32 [ 0, %lv_draw_buf_width_to_stride.exit ], [ 1, %16 ], [ 1, %38 ]
  ret i32 %.0
}